target datalayout = "e-m:e-p270:32:32-p271:32:32-p272:64:64-i64:64-i128:128-f80:128-n8:16:32:64-S128"
target triple = "x86_64-pc-linux-gnu"

%struct._zend_executor_globals = type { %struct._zval_struct, %struct._zval_struct, [32 x ptr], ptr, ptr, %struct._zend_array, %struct._zend_array, ptr, i32, i32, ptr, ptr, ptr, ptr, ptr, ptr, i64, ptr, ptr, i32, i32, i64, i32, i32, i32, i8, i8, %struct.zend_atomic_bool_s, %struct.zend_atomic_bool_s, ptr, i64, ptr, ptr, %struct._zend_array, %struct._zend_array, i32, i8, %struct._zval_struct, %struct._zval_struct, %struct._zend_stack, %struct._zend_stack, %struct._zend_stack, ptr, i32, i32, i64, ptr, ptr, ptr, %struct._zend_objects_store, ptr, ptr, ptr, [3 x %struct._zend_op], ptr, i8, i8, i64, i32, i32, ptr, [16 x %struct._HashTableIterator], ptr, %union._zend_function, %struct._zend_op, %struct._zend_array, i64, %struct.zend_get_gc_buffer, ptr, ptr, ptr, i64, i8, i32, ptr, ptr, i64, %struct._zend_call_stack, i64, i64, [6 x ptr] }
%struct.zend_atomic_bool_s = type { i8 }
%struct._zval_struct = type { %union._zend_value, %union.anon, %union.anon.2 }
%union._zend_value = type { i64 }
%union.anon = type { i32 }
%union.anon.2 = type { i32 }
%struct._zend_stack = type { i32, i32, i32, ptr }
%struct._zend_objects_store = type { ptr, i32, i32, i32 }
%struct._HashTableIterator = type { ptr, i32, i32 }
%union._zend_function = type { %struct._zend_op_array }
%struct._zend_op_array = type { i8, [3 x i8], i32, ptr, ptr, ptr, i32, i32, ptr, ptr, ptr, ptr, i32, i32, i32, i32, ptr, ptr, ptr, ptr, ptr, i32, i32, ptr, ptr, ptr, i32, i32, i32, i32, ptr, ptr, [6 x ptr] }
%struct._zend_op = type { ptr, %union._znode_op, %union._znode_op, %union._znode_op, i32, i32, i8, i8, i8, i8 }
%union._znode_op = type { i32 }
%struct._zend_array = type { %struct._zend_refcounted_h, %union.anon.4, i32, %union.anon.6, i32, i32, i32, i32, i64, ptr }
%struct._zend_refcounted_h = type { i32, %union.anon.3 }
%union.anon.3 = type { i32 }
%union.anon.4 = type { i32 }
%union.anon.6 = type { ptr }
%struct.zend_get_gc_buffer = type { ptr, ptr, ptr }
%struct._zend_call_stack = type { ptr, i64 }
%struct._zend_execute_data = type { ptr, ptr, ptr, ptr, %struct._zval_struct, ptr, ptr, ptr, ptr }
%struct._zend_object = type { %struct._zend_refcounted_h, i32, ptr, ptr, ptr, [1 x %struct._zval_struct] }
%struct.anon.0 = type { i8, i8, %union.anon.1 }
%union.anon.1 = type { i16 }
%struct._zend_reference = type { %struct._zend_refcounted_h, %struct._zval_struct, %union.zend_property_info_source_list }
%union.zend_property_info_source_list = type { ptr }
%struct._spl_dual_it_object = type { %struct.anon.8, %struct.anon.9, i32, %union.anon.10, %struct._zend_object }
%struct.anon.8 = type { %struct._zval_struct, ptr, ptr, ptr }
%struct.anon.9 = type { %struct._zval_struct, %struct._zval_struct, i64 }
%union.anon.10 = type { %struct.anon.12 }
%struct.anon.12 = type { i64, ptr, %struct._zval_struct, %struct._zval_struct }

@executor_globals = external global %struct._zend_executor_globals, align 8
@.str = private unnamed_addr constant [75 x i8] c"The object is in an invalid state as the parent constructor was not called\00", align 1

; Function Attrs: nounwind uwtable
define internal ptr @spl_dual_it_from_obj(ptr noundef %0) #0 {
  %2 = alloca ptr, align 8
  store ptr %0, ptr %2, align 8
  %3 = load ptr, ptr %2, align 8
  %4 = getelementptr inbounds i8, ptr %3, i64 -136
  ret ptr %4
}

; Function Attrs: nounwind uwtable
define hidden void @zim_IteratorIterator_current(ptr noundef %0, ptr noundef %1) #0 {
  %3 = alloca ptr, align 8
  %4 = alloca ptr, align 8
  %5 = alloca ptr, align 8
  %6 = alloca ptr, align 8
  %7 = alloca ptr, align 8
  %8 = alloca ptr, align 8
  %9 = alloca ptr, align 8
  %10 = alloca ptr, align 8
  %11 = alloca ptr, align 8
  %12 = alloca ptr, align 8
  %13 = alloca ptr, align 8
  %14 = alloca ptr, align 8
  %15 = alloca ptr, align 8
  %16 = alloca i32, align 4
  store ptr %0, ptr %8, align 8
  store ptr %1, ptr %9, align 8
  %17 = load ptr, ptr %8, align 8
  %18 = getelementptr inbounds %struct._zend_execute_data, ptr %17, i32 0, i32 4
  %19 = getelementptr inbounds %struct._zval_struct, ptr %18, i32 0, i32 2
  %20 = load i32, ptr %19, align 4
  %21 = icmp eq i32 %20, 0
  %22 = xor i1 %21, true
  %23 = xor i1 %22, true
  %24 = zext i1 %23 to i32
  %25 = sext i32 %24 to i64
  %26 = icmp ne i64 %25, 0
  br i1 %26, label %27, label %28

27:                                               ; preds = %2
  br label %29

28:                                               ; preds = %2
  call void @zend_wrong_parameters_none_error()
  br label %29

29:                                               ; preds = %28, %27
  %30 = phi i32 [ 0, %27 ], [ -1, %28 ]
  %31 = icmp eq i32 %30, -1
  br i1 %31, label %32, label %37

32:                                               ; preds = %29
  br label %33

33:                                               ; preds = %32
  %34 = load ptr, ptr getelementptr inbounds (%struct._zend_executor_globals, ptr @executor_globals, i32 0, i32 50), align 8
  %35 = icmp ne ptr %34, null
  call void @llvm.assume(i1 %35)
  br label %152

36:                                               ; No predecessors!
  br label %37

37:                                               ; preds = %36, %29
  br label %38

38:                                               ; preds = %37
  %39 = load ptr, ptr %8, align 8
  %40 = getelementptr inbounds %struct._zend_execute_data, ptr %39, i32 0, i32 4
  %41 = getelementptr inbounds %struct._zval_struct, ptr %40, i32 0, i32 0
  %42 = load ptr, ptr %41, align 8
  %43 = call ptr @spl_dual_it_from_obj(ptr noundef %42)
  store ptr %43, ptr %11, align 8
  %44 = load ptr, ptr %11, align 8
  %45 = getelementptr inbounds %struct._spl_dual_it_object, ptr %44, i32 0, i32 2
  %46 = load i32, ptr %45, align 8
  %47 = icmp eq i32 %46, -1
  br i1 %47, label %48, label %53

48:                                               ; preds = %38
  call void (ptr, ptr, ...) @zend_throw_error(ptr noundef null, ptr noundef @.str)
  br label %49

49:                                               ; preds = %48
  %50 = load ptr, ptr getelementptr inbounds (%struct._zend_executor_globals, ptr @executor_globals, i32 0, i32 50), align 8
  %51 = icmp ne ptr %50, null
  call void @llvm.assume(i1 %51)
  br label %152

52:                                               ; No predecessors!
  br label %53

53:                                               ; preds = %52, %38
  %54 = load ptr, ptr %11, align 8
  store ptr %54, ptr %10, align 8
  br label %55

55:                                               ; preds = %53
  %56 = load ptr, ptr %10, align 8
  %57 = getelementptr inbounds %struct._spl_dual_it_object, ptr %56, i32 0, i32 1
  %58 = getelementptr inbounds %struct.anon.9, ptr %57, i32 0, i32 0
  store ptr %58, ptr %5, align 8
  %59 = load ptr, ptr %5, align 8
  %60 = getelementptr inbounds %struct._zval_struct, ptr %59, i32 0, i32 1
  %61 = load i8, ptr %60, align 8
  %62 = zext i8 %61 to i32
  %63 = icmp ne i32 %62, 0
  br i1 %63, label %64, label %145

64:                                               ; preds = %55
  br label %65

65:                                               ; preds = %64
  br label %66

66:                                               ; preds = %65
  %67 = load ptr, ptr %10, align 8
  %68 = getelementptr inbounds %struct._spl_dual_it_object, ptr %67, i32 0, i32 1
  %69 = getelementptr inbounds %struct.anon.9, ptr %68, i32 0, i32 0
  store ptr %69, ptr %12, align 8
  %70 = load ptr, ptr %12, align 8
  %71 = getelementptr inbounds %struct._zval_struct, ptr %70, i32 0, i32 1
  %72 = load i32, ptr %71, align 8
  %73 = and i32 %72, 65280
  %74 = icmp ne i32 %73, 0
  br i1 %74, label %75, label %124

75:                                               ; preds = %66
  %76 = load ptr, ptr %12, align 8
  %77 = getelementptr inbounds %struct._zval_struct, ptr %76, i32 0, i32 1
  %78 = load i32, ptr %77, align 8
  %79 = and i32 %78, 255
  %80 = icmp eq i32 %79, 10
  %81 = xor i1 %80, true
  %82 = xor i1 %81, true
  %83 = zext i1 %82 to i32
  %84 = sext i32 %83 to i64
  %85 = icmp ne i64 %84, 0
  br i1 %85, label %86, label %110

86:                                               ; preds = %75
  %87 = load ptr, ptr %12, align 8
  %88 = getelementptr inbounds %struct._zval_struct, ptr %87, i32 0, i32 0
  %89 = load ptr, ptr %88, align 8
  %90 = getelementptr inbounds %struct._zend_reference, ptr %89, i32 0, i32 1
  store ptr %90, ptr %12, align 8
  %91 = load ptr, ptr %12, align 8
  %92 = getelementptr inbounds %struct._zval_struct, ptr %91, i32 0, i32 1
  %93 = load i32, ptr %92, align 8
  %94 = and i32 %93, 65280
  %95 = icmp ne i32 %94, 0
  br i1 %95, label %96, label %109

96:                                               ; preds = %86
  %97 = load ptr, ptr %12, align 8
  store ptr %97, ptr %6, align 8
  %98 = load ptr, ptr %6, align 8
  %99 = getelementptr inbounds %struct._zval_struct, ptr %98, i32 0, i32 1
  %100 = getelementptr inbounds %struct.anon.0, ptr %99, i32 0, i32 1
  %101 = load i8, ptr %100, align 1
  %102 = zext i8 %101 to i32
  %103 = icmp ne i32 %102, 0
  call void @llvm.assume(i1 %103)
  %104 = load ptr, ptr %6, align 8
  %105 = load ptr, ptr %104, align 8
  store ptr %105, ptr %4, align 8
  %106 = load ptr, ptr %4, align 8
  %107 = load i32, ptr %106, align 4
  %108 = add i32 %107, 1
  store i32 %108, ptr %106, align 4
  br label %109

109:                                              ; preds = %96, %86
  br label %123

110:                                              ; preds = %75
  %111 = load ptr, ptr %12, align 8
  store ptr %111, ptr %7, align 8
  %112 = load ptr, ptr %7, align 8
  %113 = getelementptr inbounds %struct._zval_struct, ptr %112, i32 0, i32 1
  %114 = getelementptr inbounds %struct.anon.0, ptr %113, i32 0, i32 1
  %115 = load i8, ptr %114, align 1
  %116 = zext i8 %115 to i32
  %117 = icmp ne i32 %116, 0
  call void @llvm.assume(i1 %117)
  %118 = load ptr, ptr %7, align 8
  %119 = load ptr, ptr %118, align 8
  store ptr %119, ptr %3, align 8
  %120 = load ptr, ptr %3, align 8
  %121 = load i32, ptr %120, align 4
  %122 = add i32 %121, 1
  store i32 %122, ptr %120, align 4
  br label %123

123:                                              ; preds = %110, %109
  br label %124

124:                                              ; preds = %123, %66
  br label %125

125:                                              ; preds = %124
  %126 = load ptr, ptr %9, align 8
  store ptr %126, ptr %13, align 8
  %127 = load ptr, ptr %12, align 8
  store ptr %127, ptr %14, align 8
  %128 = load ptr, ptr %14, align 8
  %129 = getelementptr inbounds %struct._zval_struct, ptr %128, i32 0, i32 0
  %130 = load ptr, ptr %129, align 8
  store ptr %130, ptr %15, align 8
  %131 = load ptr, ptr %14, align 8
  %132 = getelementptr inbounds %struct._zval_struct, ptr %131, i32 0, i32 1
  %133 = load i32, ptr %132, align 8
  store i32 %133, ptr %16, align 4
  br label %134

134:                                              ; preds = %125
  %135 = load ptr, ptr %15, align 8
  %136 = load ptr, ptr %13, align 8
  %137 = getelementptr inbounds %struct._zval_struct, ptr %136, i32 0, i32 0
  store ptr %135, ptr %137, align 8
  %138 = load i32, ptr %16, align 4
  %139 = load ptr, ptr %13, align 8
  %140 = getelementptr inbounds %struct._zval_struct, ptr %139, i32 0, i32 1
  store i32 %138, ptr %140, align 8
  br label %141

141:                                              ; preds = %134
  br label %142

142:                                              ; preds = %141
  br label %143

143:                                              ; preds = %142
  br label %152

144:                                              ; No predecessors!
  br label %152

145:                                              ; preds = %55
  br label %146

146:                                              ; preds = %145
  br label %147

147:                                              ; preds = %146
  %148 = load ptr, ptr %9, align 8
  %149 = getelementptr inbounds %struct._zval_struct, ptr %148, i32 0, i32 1
  store i32 1, ptr %149, align 8
  br label %150

150:                                              ; preds = %147
  br label %152

151:                                              ; No predecessors!
  br label %152

152:                                              ; preds = %151, %150, %144, %143, %49, %33
  ret void
}