; Function Attrs: nounwind uwtable
define hidden void @zim_IteratorIterator_current(ptr nocapture noundef readonly %0, ptr nocapture noundef writeonly %1) #0 {
  %3 = getelementptr inbounds i8, ptr %0, i64 44
  %4 = load i32, ptr %3, align 4
  %.not = icmp eq i32 %4, 0
  br i1 %.not, label %.critedge, label %5

5:                                                ; preds = %2
  tail call void @zend_wrong_parameters_none_error() #10
  %6 = load ptr, ptr getelementptr inbounds (%struct._zend_executor_globals, ptr @executor_globals, i64 0, i32 50), align 8
  %7 = icmp ne ptr %6, null
  tail call void @llvm.assume(i1 %7)
  br label %44

.critedge:                                        ; preds = %2
  %8 = getelementptr inbounds i8, ptr %0, i64 32
  %9 = load ptr, ptr %8, align 8
  %10 = getelementptr inbounds i8, ptr %9, i64 -56
  %11 = load i32, ptr %10, align 8
  %12 = icmp eq i32 %11, -1
  br i1 %12, label %13, label %16

13:                                               ; preds = %.critedge
  tail call void (ptr, ptr, ...) @zend_throw_error(ptr noundef null, ptr noundef nonnull @.str) #10
  %14 = load ptr, ptr getelementptr inbounds (%struct._zend_executor_globals, ptr @executor_globals, i64 0, i32 50), align 8
  %15 = icmp ne ptr %14, null
  tail call void @llvm.assume(i1 %15)
  br label %44

16:                                               ; preds = %.critedge
  %17 = getelementptr inbounds i8, ptr %9, i64 -96
  %18 = getelementptr inbounds i8, ptr %9, i64 -88
  %19 = load i8, ptr %18, align 8
  %.not27 = icmp eq i8 %19, 0
  br i1 %.not27, label %42, label %20

20:                                               ; preds = %16
  %21 = load i32, ptr %18, align 8
  %22 = and i32 %21, 65280
  %.not28 = icmp eq i32 %22, 0
  br i1 %.not28, label %37, label %23

23:                                               ; preds = %20
  %24 = and i32 %21, 255
  %25 = icmp eq i32 %24, 10
  br i1 %25, label %26, label %.sink.split

26:                                               ; preds = %23
  %27 = load ptr, ptr %17, align 8
  %28 = getelementptr inbounds i8, ptr %27, i64 8
  %29 = getelementptr inbounds i8, ptr %27, i64 16
  %30 = load i32, ptr %29, align 8
  %31 = and i32 %30, 65280
  %.not29 = icmp eq i32 %31, 0
  br i1 %.not29, label %37, label %.sink.split

.sink.split:                                      ; preds = %23, %26
  %.sink = phi i32 [ %30, %26 ], [ %21, %23 ]
  %.sink32 = phi ptr [ %28, %26 ], [ %17, %23 ]
  %32 = and i32 %.sink, 65280
  %33 = icmp ne i32 %32, 0
  tail call void @llvm.assume(i1 %33)
  %34 = load ptr, ptr %.sink32, align 8
  %35 = load i32, ptr %34, align 4
  %36 = add i32 %35, 1
  store i32 %36, ptr %34, align 4
  br label %37

37:                                               ; preds = %.sink.split, %20, %26
  %.0 = phi ptr [ %28, %26 ], [ %17, %20 ], [ %.sink32, %.sink.split ]
  %38 = load ptr, ptr %.0, align 8
  %39 = getelementptr inbounds i8, ptr %.0, i64 8
  %40 = load i32, ptr %39, align 8
  store ptr %38, ptr %1, align 8
  %41 = getelementptr inbounds i8, ptr %1, i64 8
  store i32 %40, ptr %41, align 8
  br label %44

42:                                               ; preds = %16
  %43 = getelementptr inbounds i8, ptr %1, i64 8
  store i32 1, ptr %43, align 8
  br label %44

44:                                               ; preds = %42, %37, %13, %5
  ret void
}